; Function Attrs: mustprogress uwtable
define void @_ZN3gmx19DensityFittingForceC2ERKNS_30GaussianSpreadKernelParameters5ShapeE(ptr noundef nonnull writeonly align 8 captures(none) dereferenceable(8) %0, ptr noundef nonnull align 8 dereferenceable(32) %1) unnamed_addr #0 align 2 personality ptr @__gxx_personality_v0 {
  %3 = tail call noalias noundef nonnull dereferenceable(128) ptr @_Znwm(i64 noundef 128) #14
  invoke void @_ZN3gmx19DensityFittingForce4ImplC1ERKNS_30GaussianSpreadKernelParameters5ShapeE(ptr noundef nonnull align 8 dereferenceable(128) %3, ptr noundef nonnull align 8 dereferenceable(32) %1)
          to label %4 unwind label %5

4:                                                ; preds = %2
  store ptr %3, ptr %0, align 8, !tbaa !52
  ret void

5:                                                ; preds = %2
  %6 = landingpad { ptr, i32 }
          cleanup
  tail call void @_ZdlPvm(ptr noundef nonnull %3, i64 noundef 128) #15
  resume { ptr, i32 } %6
}